target datalayout = "e-m:e-p270:32:32-p271:32:32-p272:64:64-i64:64-i128:128-f80:128-n8:16:32:64-S128"
target triple = "x86_64-unknown-linux-gnu"

%class.btVector3 = type { [4 x float] }
%struct.btDbvt = type { ptr, ptr, i32, i32, i32, [4 x i8], %class.btAlignedObjectArray }
%class.btAlignedObjectArray = type <{ %class.btAlignedAllocator, [3 x i8], i32, i32, [4 x i8], ptr, i8, [7 x i8] }>
%class.btAlignedAllocator = type { i8 }
%struct.btDbvtNode = type { %struct.btDbvtAabbMm, ptr, %union.anon.4 }
%struct.btDbvtAabbMm = type { %class.btVector3, %class.btVector3 }
%union.anon.4 = type { [2 x ptr] }

; Function Attrs: mustprogress uwtable
define dso_local void @_ZN6btDbvt6updateEP10btDbvtNodei(ptr noundef nonnull align 8 dereferenceable(64) %this, ptr noundef %leaf, i32 noundef %lookahead) #2 align 2 {
entry:
  %this.addr = alloca ptr, align 8
  %leaf.addr = alloca ptr, align 8
  %lookahead.addr = alloca i32, align 4
  %root = alloca ptr, align 8
  %i = alloca i32, align 4
  store ptr %this, ptr %this.addr, align 8
  store ptr %leaf, ptr %leaf.addr, align 8
  store i32 %lookahead, ptr %lookahead.addr, align 4
  %this1 = load ptr, ptr %this.addr, align 8
  %0 = load ptr, ptr %leaf.addr, align 8
  %call = call noundef ptr @_ZL10removeleafP6btDbvtP10btDbvtNode(ptr noundef %this1, ptr noundef %0)
  store ptr %call, ptr %root, align 8
  %1 = load ptr, ptr %root, align 8
  %tobool = icmp ne ptr %1, null
  br i1 %tobool, label %if.then, label %if.end6

if.then:                                          ; preds = %entry
  %2 = load i32, ptr %lookahead.addr, align 4
  %cmp = icmp sge i32 %2, 0
  br i1 %cmp, label %if.then2, label %if.else

if.then2:                                         ; preds = %if.then
  store i32 0, ptr %i, align 4
  br label %for.cond

for.cond:                                         ; preds = %for.inc, %if.then2
  %3 = load i32, ptr %i, align 4
  %4 = load i32, ptr %lookahead.addr, align 4
  %cmp3 = icmp slt i32 %3, %4
  br i1 %cmp3, label %land.rhs, label %land.end

land.rhs:                                         ; preds = %for.cond
  %5 = load ptr, ptr %root, align 8
  %parent = getelementptr inbounds %struct.btDbvtNode, ptr %5, i32 0, i32 1
  %6 = load ptr, ptr %parent, align 8
  %tobool4 = icmp ne ptr %6, null
  br label %land.end

land.end:                                         ; preds = %land.rhs, %for.cond
  %7 = phi i1 [ false, %for.cond ], [ %tobool4, %land.rhs ]
  br i1 %7, label %for.body, label %for.end

for.body:                                         ; preds = %land.end
  %8 = load ptr, ptr %root, align 8
  %parent5 = getelementptr inbounds %struct.btDbvtNode, ptr %8, i32 0, i32 1
  %9 = load ptr, ptr %parent5, align 8
  store ptr %9, ptr %root, align 8
  br label %for.inc

for.inc:                                          ; preds = %for.body
  %10 = load i32, ptr %i, align 4
  %inc = add nsw i32 %10, 1
  store i32 %inc, ptr %i, align 4
  br label %for.cond, !llvm.loop !15

for.end:                                          ; preds = %land.end
  br label %if.end

if.else:                                          ; preds = %if.then
  %m_root = getelementptr inbounds %struct.btDbvt, ptr %this1, i32 0, i32 0
  %11 = load ptr, ptr %m_root, align 8
  store ptr %11, ptr %root, align 8
  br label %if.end

if.end:                                           ; preds = %if.else, %for.end
  br label %if.end6

if.end6:                                          ; preds = %if.end, %entry
  %12 = load ptr, ptr %root, align 8
  %13 = load ptr, ptr %leaf.addr, align 8
  call void @_ZL10insertleafP6btDbvtP10btDbvtNodeS2_(ptr noundef %this1, ptr noundef %12, ptr noundef %13)
  ret void
}