; Function Attrs: mustprogress uwtable
define dso_local void @_ZN6btDbvt6updateEP10btDbvtNodei(ptr nocapture noundef nonnull align 8 dereferenceable(64) %this, ptr noundef %leaf, i32 noundef %lookahead) local_unnamed_addr #2 align 2 {
entry:
  %call = tail call fastcc noundef ptr @_ZL10removeleafP6btDbvtP10btDbvtNode(ptr noundef nonnull %this, ptr noundef %leaf)
  %tobool.not = icmp eq ptr %call, null
  br i1 %tobool.not, label %if.end6, label %if.then

if.then:                                          ; preds = %entry
  %cmp = icmp sgt i32 %lookahead, -1
  br i1 %cmp, label %for.cond.preheader, label %if.else

for.cond.preheader:                               ; preds = %if.then
  %cmp37.not = icmp eq i32 %lookahead, 0
  br i1 %cmp37.not, label %if.end6, label %land.rhs

for.cond:                                         ; preds = %land.rhs
  %inc = add nuw nsw i32 %i.09, 1
  %exitcond.not = icmp eq i32 %inc, %lookahead
  br i1 %exitcond.not, label %if.end6, label %land.rhs, !llvm.loop !27

land.rhs:                                         ; preds = %for.cond.preheader, %for.cond
  %i.09 = phi i32 [ %inc, %for.cond ], [ 0, %for.cond.preheader ]
  %root.08 = phi ptr [ %0, %for.cond ], [ %call, %for.cond.preheader ]
  %parent = getelementptr inbounds i8, ptr %root.08, i64 32
  %0 = load ptr, ptr %parent, align 8
  %tobool4.not = icmp eq ptr %0, null
  br i1 %tobool4.not, label %if.end6, label %for.cond

if.else:                                          ; preds = %if.then
  %1 = load ptr, ptr %this, align 8
  br label %if.end6

if.end6:                                          ; preds = %land.rhs, %for.cond, %for.cond.preheader, %if.else, %entry
  %root.1 = phi ptr [ %1, %if.else ], [ null, %entry ], [ %call, %for.cond.preheader ], [ %root.08, %land.rhs ], [ %0, %for.cond ]
  tail call fastcc void @_ZL10insertleafP6btDbvtP10btDbvtNodeS2_(ptr noundef nonnull %this, ptr noundef %root.1, ptr noundef %leaf)
  ret void
}